target datalayout = "e-m:e-p270:32:32-p271:32:32-p272:64:64-i64:64-i128:128-f80:128-n8:16:32:64-S128"
target triple = "x86_64-pc-linux-gnu"

@.str = private unnamed_addr constant [34 x i8] c"../openssl/crypto/cms/cms_smime.c\00", align 1
@__func__.CMS_encrypt_ex = private unnamed_addr constant [15 x i8] c"CMS_encrypt_ex\00", align 1

; Function Attrs: inlinehint nounwind uwtable
define internal ptr @ossl_check_const_X509_sk_type(ptr noundef %0) #3 {
  %2 = alloca ptr, align 8
  store ptr %0, ptr %2, align 8, !tbaa !28
  %3 = load ptr, ptr %2, align 8, !tbaa !28
  ret ptr %3
}

; Function Attrs: nounwind uwtable
define ptr @CMS_encrypt_ex(ptr noundef %0, ptr noundef %1, ptr noundef %2, i32 noundef %3, ptr noundef %4, ptr noundef %5) #0 {
  %7 = alloca ptr, align 8
  %8 = alloca ptr, align 8
  %9 = alloca ptr, align 8
  %10 = alloca ptr, align 8
  %11 = alloca i32, align 4
  %12 = alloca ptr, align 8
  %13 = alloca ptr, align 8
  %14 = alloca ptr, align 8
  %15 = alloca i32, align 4
  %16 = alloca ptr, align 8
  %17 = alloca i32, align 4
  store ptr %0, ptr %8, align 8, !tbaa !28
  store ptr %1, ptr %9, align 8, !tbaa !8
  store ptr %2, ptr %10, align 8, !tbaa !26
  store i32 %3, ptr %11, align 4, !tbaa !10
  store ptr %4, ptr %12, align 8, !tbaa !12
  store ptr %5, ptr %13, align 8, !tbaa !14
  call void @llvm.lifetime.start.p0(i64 8, ptr %14) #4
  call void @llvm.lifetime.start.p0(i64 4, ptr %15) #4
  call void @llvm.lifetime.start.p0(i64 8, ptr %16) #4
  %18 = load ptr, ptr %10, align 8, !tbaa !26
  %19 = call i64 @EVP_CIPHER_get_flags(ptr noundef %18)
  %20 = and i64 %19, 2097152
  %21 = icmp ne i64 %20, 0
  br i1 %21, label %22, label %27

22:                                               ; preds = %6
  %23 = load ptr, ptr %10, align 8, !tbaa !26
  %24 = load ptr, ptr %12, align 8, !tbaa !12
  %25 = load ptr, ptr %13, align 8, !tbaa !14
  %26 = call ptr @CMS_AuthEnvelopedData_create_ex(ptr noundef %23, ptr noundef %24, ptr noundef %25)
  br label %32

27:                                               ; preds = %6
  %28 = load ptr, ptr %10, align 8, !tbaa !26
  %29 = load ptr, ptr %12, align 8, !tbaa !12
  %30 = load ptr, ptr %13, align 8, !tbaa !14
  %31 = call ptr @CMS_EnvelopedData_create_ex(ptr noundef %28, ptr noundef %29, ptr noundef %30)
  br label %32

32:                                               ; preds = %27, %22
  %33 = phi ptr [ %26, %22 ], [ %31, %27 ]
  store ptr %33, ptr %14, align 8, !tbaa !3
  %34 = load ptr, ptr %14, align 8, !tbaa !3
  %35 = icmp eq ptr %34, null
  br i1 %35, label %36, label %37

36:                                               ; preds = %32
  call void @ERR_new()
  call void @ERR_set_debug(ptr noundef @.str, i32 noundef 653, ptr noundef @__func__.CMS_encrypt_ex)
  call void (i32, i32, ptr, ...) @ERR_set_error(i32 noundef 46, i32 noundef 524334, ptr noundef null)
  br label %80

37:                                               ; preds = %32
  store i32 0, ptr %15, align 4, !tbaa !10
  br label %38

38:                                               ; preds = %56, %37
  %39 = load i32, ptr %15, align 4, !tbaa !10
  %40 = load ptr, ptr %8, align 8, !tbaa !28
  %41 = call ptr @ossl_check_const_X509_sk_type(ptr noundef %40)
  %42 = call i32 @OPENSSL_sk_num(ptr noundef %41)
  %43 = icmp slt i32 %39, %42
  br i1 %43, label %44, label %59

44:                                               ; preds = %38
  %45 = load ptr, ptr %8, align 8, !tbaa !28
  %46 = call ptr @ossl_check_const_X509_sk_type(ptr noundef %45)
  %47 = load i32, ptr %15, align 4, !tbaa !10
  %48 = call ptr @OPENSSL_sk_value(ptr noundef %46, i32 noundef %47)
  store ptr %48, ptr %16, align 8, !tbaa !44
  %49 = load ptr, ptr %14, align 8, !tbaa !3
  %50 = load ptr, ptr %16, align 8, !tbaa !44
  %51 = load i32, ptr %11, align 4, !tbaa !10
  %52 = call ptr @CMS_add1_recipient_cert(ptr noundef %49, ptr noundef %50, i32 noundef %51)
  %53 = icmp ne ptr %52, null
  br i1 %53, label %55, label %54

54:                                               ; preds = %44
  call void @ERR_new()
  call void @ERR_set_debug(ptr noundef @.str, i32 noundef 659, ptr noundef @__func__.CMS_encrypt_ex)
  call void (i32, i32, ptr, ...) @ERR_set_error(i32 noundef 46, i32 noundef 137, ptr noundef null)
  br label %80

55:                                               ; preds = %44
  br label %56

56:                                               ; preds = %55
  %57 = load i32, ptr %15, align 4, !tbaa !10
  %58 = add nsw i32 %57, 1
  store i32 %58, ptr %15, align 4, !tbaa !10
  br label %38, !llvm.loop !67

59:                                               ; preds = %38
  %60 = load i32, ptr %11, align 4, !tbaa !10
  %61 = and i32 %60, 64
  %62 = icmp ne i32 %61, 0
  br i1 %62, label %66, label %63

63:                                               ; preds = %59
  %64 = load ptr, ptr %14, align 8, !tbaa !3
  %65 = call i32 @CMS_set_detached(ptr noundef %64, i32 noundef 0)
  br label %66

66:                                               ; preds = %63, %59
  %67 = load i32, ptr %11, align 4, !tbaa !10
  %68 = and i32 %67, 20480
  %69 = icmp ne i32 %68, 0
  br i1 %69, label %76, label %70

70:                                               ; preds = %66
  %71 = load ptr, ptr %14, align 8, !tbaa !3
  %72 = load ptr, ptr %9, align 8, !tbaa !8
  %73 = load i32, ptr %11, align 4, !tbaa !10
  %74 = call i32 @CMS_final(ptr noundef %71, ptr noundef %72, ptr noundef null, i32 noundef %73)
  %75 = icmp ne i32 %74, 0
  br i1 %75, label %76, label %78

76:                                               ; preds = %70, %66
  %77 = load ptr, ptr %14, align 8, !tbaa !3
  store ptr %77, ptr %7, align 8
  store i32 1, ptr %17, align 4
  br label %82

78:                                               ; preds = %70
  call void @ERR_new()
  call void @ERR_set_debug(ptr noundef @.str, i32 noundef 671, ptr noundef @__func__.CMS_encrypt_ex)
  call void (i32, i32, ptr, ...) @ERR_set_error(i32 noundef 46, i32 noundef 524334, ptr noundef null)
  br label %79

79:                                               ; preds = %78
  br label %80

80:                                               ; preds = %79, %54, %36
  %81 = load ptr, ptr %14, align 8, !tbaa !3
  call void @CMS_ContentInfo_free(ptr noundef %81)
  store ptr null, ptr %7, align 8
  store i32 1, ptr %17, align 4
  br label %82

82:                                               ; preds = %80, %76
  call void @llvm.lifetime.end.p0(i64 8, ptr %16) #4
  call void @llvm.lifetime.end.p0(i64 4, ptr %15) #4
  call void @llvm.lifetime.end.p0(i64 8, ptr %14) #4
  %83 = load ptr, ptr %7, align 8
  ret ptr %83
}