; Function Attrs: nounwind uwtable
define ptr @CMS_encrypt_ex(ptr noundef %0, ptr noundef %1, ptr noundef %2, i32 noundef %3, ptr noundef %4, ptr noundef %5) local_unnamed_addr #0 {
  %7 = tail call i64 @EVP_CIPHER_get_flags(ptr noundef %2) #4
  %8 = and i64 %7, 2097152
  %.not = icmp eq i64 %8, 0
  br i1 %.not, label %11, label %9

9:                                                ; preds = %6
  %10 = tail call ptr @CMS_AuthEnvelopedData_create_ex(ptr noundef %2, ptr noundef %4, ptr noundef %5) #4
  br label %13

11:                                               ; preds = %6
  %12 = tail call ptr @CMS_EnvelopedData_create_ex(ptr noundef %2, ptr noundef %4, ptr noundef %5) #4
  br label %13

13:                                               ; preds = %11, %9
  %14 = phi ptr [ %10, %9 ], [ %12, %11 ]
  %15 = icmp eq ptr %14, null
  br i1 %15, label %.loopexit, label %.preheader

.preheader:                                       ; preds = %13
  %16 = tail call i32 @OPENSSL_sk_num(ptr noundef %0) #4
  %17 = icmp sgt i32 %16, 0
  br i1 %17, label %.lr.ph, label %._crit_edge

18:                                               ; preds = %.lr.ph
  %19 = add nuw nsw i32 %.02430, 1
  %20 = tail call i32 @OPENSSL_sk_num(ptr noundef %0) #4
  %21 = icmp slt i32 %19, %20
  br i1 %21, label %.lr.ph, label %._crit_edge, !llvm.loop !38

.lr.ph:                                           ; preds = %.preheader, %18
  %.02430 = phi i32 [ %19, %18 ], [ 0, %.preheader ]
  %22 = tail call ptr @OPENSSL_sk_value(ptr noundef %0, i32 noundef %.02430) #4
  %23 = tail call ptr @CMS_add1_recipient_cert(ptr noundef nonnull %14, ptr noundef %22, i32 noundef %3) #4
  %.not29 = icmp eq ptr %23, null
  br i1 %.not29, label %.loopexit, label %18

._crit_edge:                                      ; preds = %18, %.preheader
  %24 = and i32 %3, 64
  %.not26 = icmp eq i32 %24, 0
  br i1 %.not26, label %25, label %27

25:                                               ; preds = %._crit_edge
  %26 = tail call i32 @CMS_set_detached(ptr noundef nonnull %14, i32 noundef 0) #4
  br label %27

27:                                               ; preds = %25, %._crit_edge
  %28 = and i32 %3, 20480
  %.not27 = icmp eq i32 %28, 0
  br i1 %.not27, label %29, label %31

29:                                               ; preds = %27
  %30 = tail call i32 @CMS_final(ptr noundef nonnull %14, ptr noundef %1, ptr noundef null, i32 noundef %3)
  %.not28 = icmp eq i32 %30, 0
  br i1 %.not28, label %.loopexit, label %31

.loopexit:                                        ; preds = %.lr.ph, %29, %13
  %.sink31 = phi i32 [ 653, %13 ], [ 671, %29 ], [ 659, %.lr.ph ]
  %.sink = phi i32 [ 524334, %13 ], [ 524334, %29 ], [ 137, %.lr.ph ]
  tail call void @ERR_new() #4
  tail call void @ERR_set_debug(ptr noundef nonnull @.str, i32 noundef %.sink31, ptr noundef nonnull @__func__.CMS_encrypt_ex) #4
  tail call void (i32, i32, ptr, ...) @ERR_set_error(i32 noundef 46, i32 noundef %.sink, ptr noundef null) #4
  tail call void @CMS_ContentInfo_free(ptr noundef %14) #4
  br label %31

31:                                               ; preds = %27, %29, %.loopexit
  %.0 = phi ptr [ null, %.loopexit ], [ %14, %29 ], [ %14, %27 ]
  ret ptr %.0
}